target datalayout = "e-m:e-p270:32:32-p271:32:32-p272:64:64-i64:64-i128:128-f80:128-n8:16:32:64-S128"
target triple = "x86_64-pc-linux-gnu"

@progname = internal global ptr @.str.4, align 8
@.str.42 = private unnamed_addr constant [29 x i8] c"(error message not a string)\00", align 1

; Function Attrs: nounwind uwtable
define internal i32 @report(ptr noundef %0, i32 noundef %1) #0 {
  %3 = alloca ptr, align 8
  %4 = alloca i32, align 4
  %5 = alloca ptr, align 8
  store ptr %0, ptr %3, align 8, !tbaa !11
  store i32 %1, ptr %4, align 4, !tbaa !4
  %6 = load i32, ptr %4, align 4, !tbaa !4
  %7 = icmp ne i32 %6, 0
  br i1 %7, label %8, label %18

8:                                                ; preds = %2
  call void @llvm.lifetime.start.p0(i64 8, ptr %5) #5
  %9 = load ptr, ptr %3, align 8, !tbaa !11
  %10 = call ptr @lua_tolstring(ptr noundef %9, i32 noundef -1, ptr noundef null)
  store ptr %10, ptr %5, align 8, !tbaa !13
  %11 = load ptr, ptr %5, align 8, !tbaa !13
  %12 = icmp eq ptr %11, null
  br i1 %12, label %13, label %14

13:                                               ; preds = %8
  store ptr @.str.42, ptr %5, align 8, !tbaa !13
  br label %14

14:                                               ; preds = %13, %8
  %15 = load ptr, ptr @progname, align 8, !tbaa !13
  %16 = load ptr, ptr %5, align 8, !tbaa !13
  call void @l_message(ptr noundef %15, ptr noundef %16)
  %17 = load ptr, ptr %3, align 8, !tbaa !11
  call void @lua_settop(ptr noundef %17, i32 noundef -2)
  call void @llvm.lifetime.end.p0(i64 8, ptr %5) #5
  br label %18

18:                                               ; preds = %14, %2
  %19 = load i32, ptr %4, align 4, !tbaa !4
  ret i32 %19
}

; Function Attrs: nounwind uwtable
define internal i32 @dochunk(ptr noundef %0, i32 noundef %1) #0 {
  %3 = alloca ptr, align 8
  %4 = alloca i32, align 4
  store ptr %0, ptr %3, align 8, !tbaa !11
  store i32 %1, ptr %4, align 4, !tbaa !4
  %5 = load i32, ptr %4, align 4, !tbaa !4
  %6 = icmp eq i32 %5, 0
  br i1 %6, label %7, label %10

7:                                                ; preds = %2
  %8 = load ptr, ptr %3, align 8, !tbaa !11
  %9 = call i32 @docall(ptr noundef %8, i32 noundef 0, i32 noundef 0)
  store i32 %9, ptr %4, align 4, !tbaa !4
  br label %10

10:                                               ; preds = %7, %2
  %11 = load ptr, ptr %3, align 8, !tbaa !11
  %12 = load i32, ptr %4, align 4, !tbaa !4
  %13 = call i32 @report(ptr noundef %11, i32 noundef %12)
  ret i32 %13
}

; Function Attrs: nounwind uwtable
define internal i32 @dostring(ptr noundef %0, ptr noundef %1, ptr noundef %2) #0 {
  %4 = alloca ptr, align 8
  %5 = alloca ptr, align 8
  %6 = alloca ptr, align 8
  store ptr %0, ptr %4, align 8, !tbaa !11
  store ptr %1, ptr %5, align 8, !tbaa !13
  store ptr %2, ptr %6, align 8, !tbaa !13
  %7 = load ptr, ptr %4, align 8, !tbaa !11
  %8 = load ptr, ptr %4, align 8, !tbaa !11
  %9 = load ptr, ptr %5, align 8, !tbaa !13
  %10 = load ptr, ptr %5, align 8, !tbaa !13
  %11 = call i64 @strlen(ptr noundef %10) #6
  %12 = load ptr, ptr %6, align 8, !tbaa !13
  %13 = call i32 @luaL_loadbufferx(ptr noundef %8, ptr noundef %9, i64 noundef %11, ptr noundef %12, ptr noundef null)
  %14 = call i32 @dochunk(ptr noundef %7, i32 noundef %13)
  ret i32 %14
}