; Function Attrs: nounwind uwtable
define internal fastcc i32 @dostring(ptr noundef %0, ptr noundef %1, ptr noundef %2) unnamed_addr #0 {
  %4 = tail call i64 @strlen(ptr noundef nonnull dereferenceable(1) %1) #12
  %5 = tail call i32 @luaL_loadbufferx(ptr noundef %0, ptr noundef nonnull %1, i64 noundef %4, ptr noundef %2, ptr noundef null) #10
  %6 = icmp eq i32 %5, 0
  br i1 %6, label %7, label %.thread.i

7:                                                ; preds = %3
  %8 = tail call fastcc i32 @docall(ptr noundef %0, i32 noundef 0, i32 noundef 0)
  %.not.i.i = icmp eq i32 %8, 0
  br i1 %.not.i.i, label %dochunk.exit, label %.thread.i

.thread.i:                                        ; preds = %7, %3
  %.06.i = phi i32 [ %8, %7 ], [ %5, %3 ]
  %9 = tail call ptr @lua_tolstring(ptr noundef %0, i32 noundef -1, ptr noundef null) #10
  %10 = icmp eq ptr %9, null
  %spec.store.select.i.i = select i1 %10, ptr @.str.42, ptr %9
  %11 = load ptr, ptr @progname, align 8, !tbaa !4
  tail call fastcc void @l_message(ptr noundef %11, ptr noundef nonnull %spec.store.select.i.i)
  tail call void @lua_settop(ptr noundef %0, i32 noundef -2) #10
  br label %dochunk.exit

dochunk.exit:                                     ; preds = %7, %.thread.i
  %.07.i = phi i32 [ 0, %7 ], [ %.06.i, %.thread.i ]
  ret i32 %.07.i
}